; Function Attrs: nounwind uwtable
define range(i32 -1, 1) i32 @H5Fget_fileno(i64 noundef %0, ptr noundef %1) local_unnamed_addr #0 {
  %3 = alloca %struct.H5CX_node_t, align 8
  %4 = alloca %struct.H5VL_file_get_args_t, align 8
  call void @llvm.lifetime.start.p0(i64 480, ptr nonnull %3) #6
  call void @llvm.memset.p0.i64(ptr noundef nonnull align 8 dereferenceable(480) %3, i8 0, i64 480, i1 false)
  %5 = load i8, ptr @H5_libinit_g, align 1, !tbaa !3, !range !7, !noundef !8
  %6 = trunc nuw i8 %5 to i1
  %7 = load i8, ptr @H5_libterm_g, align 1, !range !7
  %8 = trunc nuw i8 %7 to i1
  %9 = select i1 %6, i1 true, i1 %8
  br i1 %9, label %17, label %10, !prof !9

10:                                               ; preds = %2
  %11 = tail call i32 @H5_init_library() #6
  %12 = icmp slt i32 %11, 0
  br i1 %12, label %13, label %._crit_edge, !prof !10

._crit_edge:                                      ; preds = %10
  %.pre = load i8, ptr @H5_libterm_g, align 1, !range !7
  br label %17

13:                                               ; preds = %10
  %14 = load i64, ptr @H5E_FUNC_g, align 8, !tbaa !11
  %15 = load i64, ptr @H5E_CANTINIT_g, align 8, !tbaa !11
  %16 = tail call i32 (ptr, ptr, i32, i64, i64, ptr, ...) @H5E_printf_stack(ptr noundef nonnull @.str, ptr noundef nonnull @__func__.H5Fget_fileno, i32 noundef 1583, i64 noundef %14, i64 noundef %15, ptr noundef nonnull @.str.1) #6
  br label %.thread25

17:                                               ; preds = %._crit_edge, %2
  %18 = phi i8 [ %.pre, %._crit_edge ], [ %7, %2 ]
  %19 = load i8, ptr @H5F_init_g, align 1, !tbaa !3, !range !7, !noundef !8
  %20 = trunc nuw i8 %19 to i1
  %21 = trunc nuw i8 %18 to i1
  %22 = select i1 %20, i1 true, i1 %21
  br i1 %22, label %30, label %23, !prof !9

23:                                               ; preds = %17
  store i8 1, ptr @H5F_init_g, align 1, !tbaa !3
  %24 = tail call i32 @H5F__init_package() #6
  %25 = icmp slt i32 %24, 0
  br i1 %25, label %26, label %30, !prof !13

26:                                               ; preds = %23
  store i8 0, ptr @H5F_init_g, align 1, !tbaa !3
  %27 = load i64, ptr @H5E_FUNC_g, align 8, !tbaa !11
  %28 = load i64, ptr @H5E_CANTINIT_g, align 8, !tbaa !11
  %29 = tail call i32 (ptr, ptr, i32, i64, i64, ptr, ...) @H5E_printf_stack(ptr noundef nonnull @.str, ptr noundef nonnull @__func__.H5Fget_fileno, i32 noundef 1583, i64 noundef %27, i64 noundef %28, ptr noundef nonnull @.str.2) #6
  br label %.thread25

30:                                               ; preds = %17, %23
  %31 = call i32 @H5CX_push(ptr noundef nonnull %3) #6
  %32 = icmp slt i32 %31, 0
  br i1 %32, label %33, label %37, !prof !10

33:                                               ; preds = %30
  %34 = load i64, ptr @H5E_FUNC_g, align 8, !tbaa !11
  %35 = load i64, ptr @H5E_CANTSET_g, align 8, !tbaa !11
  %36 = call i32 (ptr, ptr, i32, i64, i64, ptr, ...) @H5E_printf_stack(ptr noundef nonnull @.str, ptr noundef nonnull @__func__.H5Fget_fileno, i32 noundef 1583, i64 noundef %34, i64 noundef %35, ptr noundef nonnull @.str.3) #6
  br label %.thread25

37:                                               ; preds = %30
  %38 = call i32 @H5E_clear_stack() #6
  %.not = icmp eq ptr %1, null
  br i1 %.not, label %.thread29, label %40

.thread29:                                        ; preds = %37
  %39 = call i32 @H5CX_pop(i1 noundef zeroext true) #6
  br label %60

40:                                               ; preds = %37
  call void @llvm.lifetime.start.p0(i64 40, ptr nonnull %4) #6
  %41 = call ptr @H5VL_vol_object_verify(i64 noundef %0, i32 noundef 1) #6
  %42 = icmp eq ptr %41, null
  br i1 %42, label %43, label %47

43:                                               ; preds = %40
  %44 = load i64, ptr @H5E_ARGS_g, align 8, !tbaa !11
  %45 = load i64, ptr @H5E_BADTYPE_g, align 8, !tbaa !11
  %46 = call i32 (ptr, ptr, i32, i64, i64, ptr, ...) @H5E_printf_stack(ptr noundef nonnull @.str, ptr noundef nonnull @__func__.H5Fget_fileno, i32 noundef 1592, i64 noundef %44, i64 noundef %45, ptr noundef nonnull @.str.4) #6
  br label %.thread33

47:                                               ; preds = %40
  store i32 3, ptr %4, align 8, !tbaa !15
  %48 = getelementptr inbounds nuw i8, ptr %4, i64 8
  store ptr %1, ptr %48, align 8, !tbaa !18
  %49 = load i64, ptr @H5P_LST_DATASET_XFER_ID_g, align 8, !tbaa !11
  %50 = call i32 @H5VL_file_get(ptr noundef nonnull %41, ptr noundef nonnull %4, i64 noundef %49, ptr noundef null) #6
  %51 = icmp slt i32 %50, 0
  br i1 %51, label %52, label %57

52:                                               ; preds = %47
  %53 = load i64, ptr @H5E_FILE_g, align 8, !tbaa !11
  %54 = load i64, ptr @H5E_CANTGET_g, align 8, !tbaa !11
  %55 = call i32 (ptr, ptr, i32, i64, i64, ptr, ...) @H5E_printf_stack(ptr noundef nonnull @.str, ptr noundef nonnull @__func__.H5Fget_fileno, i32 noundef 1600, i64 noundef %53, i64 noundef %54, ptr noundef nonnull @.str.80) #6
  br label %.thread33

.thread33:                                        ; preds = %43, %52
  call void @llvm.lifetime.end.p0(i64 40, ptr nonnull %4) #6
  %56 = call i32 @H5CX_pop(i1 noundef zeroext true) #6
  br label %.thread25

57:                                               ; preds = %47
  call void @llvm.lifetime.end.p0(i64 40, ptr nonnull %4) #6
  %58 = call i32 @H5CX_pop(i1 noundef zeroext true) #6
  br label %60

.thread25:                                        ; preds = %13, %26, %33, %.thread33
  %59 = call i32 @H5E_dump_api_stack() #6
  br label %60

60:                                               ; preds = %57, %.thread29, %.thread25
  %.013 = phi i32 [ -1, %.thread25 ], [ 0, %57 ], [ 0, %.thread29 ]
  call void @llvm.lifetime.end.p0(i64 480, ptr nonnull %3) #6
  ret i32 %.013
}